; Function Attrs: mustprogress uwtable
define internal void @_ZN2EA4StdCL15DefaultCallbackEPNS0_8CallbackEPvmm(ptr noundef %pCallback, ptr nocapture readnone %0, i64 %1, i64 %2) #1 personality ptr @__gxx_personality_v0 {
entry:
  %mbStarted.i = getelementptr inbounds i8, ptr %pCallback, i64 52
  %3 = load atomic i32, ptr %mbStarted.i seq_cst, align 4
  %tobool.not.i = icmp eq i32 %3, 0
  br i1 %tobool.not.i, label %_ZN2EA4StdC8Callback4StopEv.exit, label %if.then.i

if.then.i:                                        ; preds = %entry
  %mpCallbackManager.i = getelementptr inbounds i8, ptr %pCallback, i64 24
  %4 = load ptr, ptr %mpCallbackManager.i, align 8
  %vtable.i = load ptr, ptr %4, align 8
  %vfn.i = getelementptr inbounds i8, ptr %vtable.i, i64 48
  %5 = load ptr, ptr %vfn.i, align 8
  %call2.i = tail call noundef zeroext i1 %5(ptr noundef nonnull align 8 dereferenceable(8) %4, ptr noundef nonnull %pCallback)
  store atomic i32 0, ptr %mbStarted.i seq_cst, align 4
  %mbEnableRefCount.i = getelementptr inbounds i8, ptr %pCallback, i64 57
  %6 = load i8, ptr %mbEnableRefCount.i, align 1
  %7 = and i8 %6, 1
  %tobool5.not.i = icmp eq i8 %7, 0
  br i1 %tobool5.not.i, label %_ZN2EA4StdC8Callback4StopEv.exit, label %if.then6.i

if.then6.i:                                       ; preds = %if.then.i
  %mpFunction.i.i.i = getelementptr inbounds i8, ptr %pCallback, i64 32
  %8 = load ptr, ptr %mpFunction.i.i.i, align 8
  %tobool.not.i.i.i = icmp eq ptr %8, null
  br i1 %tobool.not.i.i.i, label %_ZN2EA4StdC8Callback4StopEv.exit, label %if.then.i.i.i

if.then.i.i.i:                                    ; preds = %if.then6.i
  %mpFunctionArg.i.i.i = getelementptr inbounds i8, ptr %pCallback, i64 40
  %9 = load ptr, ptr %mpFunctionArg.i.i.i, align 8
  tail call void %8(ptr noundef nonnull %pCallback, ptr noundef %9, i64 noundef 1, i64 noundef 0)
  br label %_ZN2EA4StdC8Callback4StopEv.exit

_ZN2EA4StdC8Callback4StopEv.exit:                 ; preds = %entry, %if.then.i, %if.then6.i, %if.then.i.i.i
  ret void
}